target datalayout = "e-m:e-p270:32:32-p271:32:32-p272:64:64-i64:64-i128:128-f80:128-n8:16:32:64-S128"
target triple = "x86_64-pc-linux-gnu"

%struct.AVComplexFloat = type { float, float }

; Function Attrs: alwaysinline nounwind willreturn memory(none) uwtable
define internal i32 @av_clip_uintp2_c(i32 noundef %0, i32 noundef %1) #9 {
  %3 = alloca i32, align 4
  %4 = alloca i32, align 4
  %5 = alloca i32, align 4
  store i32 %0, ptr %4, align 4, !tbaa !24
  store i32 %1, ptr %5, align 4, !tbaa !24
  %6 = load i32, ptr %4, align 4, !tbaa !24
  %7 = load i32, ptr %5, align 4, !tbaa !24
  %8 = shl i32 1, %7
  %9 = sub i32 %8, 1
  %10 = xor i32 %9, -1
  %11 = and i32 %6, %10
  %12 = icmp ne i32 %11, 0
  br i1 %12, label %13, label %21

13:                                               ; preds = %2
  %14 = load i32, ptr %4, align 4, !tbaa !24
  %15 = xor i32 %14, -1
  %16 = ashr i32 %15, 31
  %17 = load i32, ptr %5, align 4, !tbaa !24
  %18 = shl i32 1, %17
  %19 = sub i32 %18, 1
  %20 = and i32 %16, %19
  store i32 %20, ptr %3, align 4
  br label %23

21:                                               ; preds = %2
  %22 = load i32, ptr %4, align 4, !tbaa !24
  store i32 %22, ptr %3, align 4
  br label %23

23:                                               ; preds = %21, %13
  %24 = load i32, ptr %3, align 4
  ret i32 %24
}

; Function Attrs: nounwind uwtable
define internal void @export_row16(ptr noundef %0, ptr noundef %1, i32 noundef %2, i32 noundef %3, ptr noundef %4) #2 {
  %6 = alloca ptr, align 8
  %7 = alloca ptr, align 8
  %8 = alloca i32, align 4
  %9 = alloca i32, align 4
  %10 = alloca ptr, align 8
  %11 = alloca ptr, align 8
  %12 = alloca i32, align 4
  store ptr %0, ptr %6, align 8, !tbaa !85
  store ptr %1, ptr %7, align 8, !tbaa !59
  store i32 %2, ptr %8, align 4, !tbaa !24
  store i32 %3, ptr %9, align 4, !tbaa !24
  store ptr %4, ptr %10, align 8, !tbaa !87
  call void @llvm.lifetime.start.p0(i64 8, ptr %11) #11
  %13 = load ptr, ptr %7, align 8, !tbaa !59
  store ptr %13, ptr %11, align 8, !tbaa !131
  call void @llvm.lifetime.start.p0(i64 4, ptr %12) #11
  store i32 0, ptr %12, align 4, !tbaa !24
  br label %14

14:                                               ; preds = %41, %5
  %15 = load i32, ptr %12, align 4, !tbaa !24
  %16 = load i32, ptr %8, align 4, !tbaa !24
  %17 = icmp slt i32 %15, %16
  br i1 %17, label %19, label %18

18:                                               ; preds = %14
  call void @llvm.lifetime.end.p0(i64 4, ptr %12) #11
  br label %44

19:                                               ; preds = %14
  %20 = load ptr, ptr %6, align 8, !tbaa !85
  %21 = load i32, ptr %12, align 4, !tbaa !24
  %22 = sext i32 %21 to i64
  %23 = getelementptr inbounds %struct.AVComplexFloat, ptr %20, i64 %22
  %24 = getelementptr inbounds nuw %struct.AVComplexFloat, ptr %23, i32 0, i32 0
  %25 = load float, ptr %24, align 4, !tbaa !98
  %26 = load ptr, ptr %10, align 8, !tbaa !87
  %27 = load i32, ptr %12, align 4, !tbaa !24
  %28 = sext i32 %27 to i64
  %29 = getelementptr inbounds float, ptr %26, i64 %28
  %30 = load float, ptr %29, align 4, !tbaa !75
  %31 = fdiv nsz float %25, %30
  %32 = call i64 @llvm.lrint.i64.f32(float %31)
  %33 = trunc i64 %32 to i32
  %34 = load i32, ptr %9, align 4, !tbaa !24
  %35 = call i32 @av_clip_uintp2_c(i32 noundef %33, i32 noundef %34) #13
  %36 = trunc i32 %35 to i16
  %37 = load ptr, ptr %11, align 8, !tbaa !131
  %38 = load i32, ptr %12, align 4, !tbaa !24
  %39 = sext i32 %38 to i64
  %40 = getelementptr inbounds i16, ptr %37, i64 %39
  store i16 %36, ptr %40, align 2, !tbaa !133
  br label %41

41:                                               ; preds = %19
  %42 = load i32, ptr %12, align 4, !tbaa !24
  %43 = add nsw i32 %42, 1
  store i32 %43, ptr %12, align 4, !tbaa !24
  br label %14, !llvm.loop !136

44:                                               ; preds = %18
  call void @llvm.lifetime.end.p0(i64 8, ptr %11) #11
  ret void
}