; Function Attrs: nofree norecurse nosync nounwind memory(argmem: readwrite) uwtable
define internal void @export_row16(ptr noundef readonly captures(none) %0, ptr noundef writeonly captures(none) %1, i32 noundef %2, i32 noundef %3, ptr noundef readonly captures(none) %4) #5 {
  %6 = icmp sgt i32 %2, 0
  br i1 %6, label %.lr.ph, label %._crit_edge

.lr.ph:                                           ; preds = %5
  %notmask.i = shl nsw i32 -1, %3
  %7 = xor i32 %notmask.i, -1
  %wide.trip.count = zext nneg i32 %2 to i64
  br label %8

._crit_edge:                                      ; preds = %8, %5
  ret void

8:                                                ; preds = %.lr.ph, %8
  %indvars.iv = phi i64 [ 0, %.lr.ph ], [ %indvars.iv.next, %8 ]
  %9 = getelementptr inbounds nuw %struct.AVComplexFloat, ptr %0, i64 %indvars.iv
  %10 = load float, ptr %9, align 4, !tbaa !111
  %11 = getelementptr inbounds nuw float, ptr %4, i64 %indvars.iv
  %12 = load float, ptr %11, align 4, !tbaa !68
  %13 = fdiv nsz float %10, %12
  %14 = tail call i64 @llvm.lrint.i64.f32(float %13)
  %15 = trunc i64 %14 to i32
  %16 = and i32 %notmask.i, %15
  %.not.i = icmp eq i32 %16, 0
  %isnotneg.inv.i = icmp slt i32 %15, 0
  %17 = select i1 %isnotneg.inv.i, i32 0, i32 %7
  %.0.i = select i1 %.not.i, i32 %15, i32 %17
  %18 = trunc i32 %.0.i to i16
  %19 = getelementptr inbounds nuw i16, ptr %1, i64 %indvars.iv
  store i16 %18, ptr %19, align 2, !tbaa !143
  %indvars.iv.next = add nuw nsw i64 %indvars.iv, 1
  %exitcond.not = icmp eq i64 %indvars.iv.next, %wide.trip.count
  br i1 %exitcond.not, label %._crit_edge, label %8, !llvm.loop !146
}